target datalayout = "e-m:e-p270:32:32-p271:32:32-p272:64:64-i64:64-i128:128-f80:128-n8:16:32:64-S128"
target triple = "x86_64-pc-linux-gnu"

%struct.VMAFMotionData = type { [5 x i16], i32, i32, i64, [2 x ptr], ptr, double, i64, %struct.VMAFMotionDSPContext }
%struct.VMAFMotionDSPContext = type { ptr, ptr, ptr }
%struct.AVRational = type { i32, i32 }
%struct.AVChannelLayout = type { i32, i32, %union.anon, ptr }
%union.anon = type { i64 }
%struct.AVFilterContext = type { ptr, ptr, ptr, ptr, ptr, i32, ptr, ptr, i32, ptr, ptr, i32, i32, ptr, ptr, ptr, ptr, i32, ptr, i32, i32 }
%struct.VMAFMotionContext = type { ptr, %struct.VMAFMotionData, ptr, ptr }
%struct.AVFilterLink = type { ptr, ptr, ptr, ptr, i32, i32, i32, i32, %struct.AVRational, i32, i32, i32, %struct.AVChannelLayout, %struct.AVRational, ptr, i32, %struct.AVFilterFormatsConfig, %struct.AVFilterFormatsConfig }
%struct.AVFilterFormatsConfig = type { ptr, ptr, ptr, ptr, ptr }

; Function Attrs: nounwind uwtable
define internal i32 @config_input_ref(ptr noundef %0) #0 {
  %2 = alloca ptr, align 8
  %3 = alloca ptr, align 8
  %4 = alloca ptr, align 8
  store ptr %0, ptr %2, align 8, !tbaa !104
  call void @llvm.lifetime.start.p0(i64 8, ptr %3) #10
  %5 = load ptr, ptr %2, align 8, !tbaa !104
  %6 = getelementptr inbounds nuw %struct.AVFilterLink, ptr %5, i32 0, i32 2
  %7 = load ptr, ptr %6, align 8, !tbaa !106
  store ptr %7, ptr %3, align 8, !tbaa !47
  call void @llvm.lifetime.start.p0(i64 8, ptr %4) #10
  %8 = load ptr, ptr %3, align 8, !tbaa !47
  %9 = getelementptr inbounds nuw %struct.AVFilterContext, ptr %8, i32 0, i32 9
  %10 = load ptr, ptr %9, align 8, !tbaa !49
  store ptr %10, ptr %4, align 8, !tbaa !60
  %11 = load ptr, ptr %4, align 8, !tbaa !60
  %12 = getelementptr inbounds nuw %struct.VMAFMotionContext, ptr %11, i32 0, i32 1
  %13 = load ptr, ptr %3, align 8, !tbaa !47
  %14 = getelementptr inbounds nuw %struct.AVFilterContext, ptr %13, i32 0, i32 4
  %15 = load ptr, ptr %14, align 8, !tbaa !114
  %16 = getelementptr inbounds ptr, ptr %15, i64 0
  %17 = load ptr, ptr %16, align 8, !tbaa !104
  %18 = getelementptr inbounds nuw %struct.AVFilterLink, ptr %17, i32 0, i32 6
  %19 = load i32, ptr %18, align 8, !tbaa !115
  %20 = load ptr, ptr %3, align 8, !tbaa !47
  %21 = getelementptr inbounds nuw %struct.AVFilterContext, ptr %20, i32 0, i32 4
  %22 = load ptr, ptr %21, align 8, !tbaa !114
  %23 = getelementptr inbounds ptr, ptr %22, i64 0
  %24 = load ptr, ptr %23, align 8, !tbaa !104
  %25 = getelementptr inbounds nuw %struct.AVFilterLink, ptr %24, i32 0, i32 7
  %26 = load i32, ptr %25, align 4, !tbaa !116
  %27 = load ptr, ptr %3, align 8, !tbaa !47
  %28 = getelementptr inbounds nuw %struct.AVFilterContext, ptr %27, i32 0, i32 4
  %29 = load ptr, ptr %28, align 8, !tbaa !114
  %30 = getelementptr inbounds ptr, ptr %29, i64 0
  %31 = load ptr, ptr %30, align 8, !tbaa !104
  %32 = getelementptr inbounds nuw %struct.AVFilterLink, ptr %31, i32 0, i32 5
  %33 = load i32, ptr %32, align 4, !tbaa !117
  %34 = call i32 @ff_vmafmotion_init(ptr noundef %12, i32 noundef %19, i32 noundef %26, i32 noundef %33)
  call void @llvm.lifetime.end.p0(i64 8, ptr %4) #10
  call void @llvm.lifetime.end.p0(i64 8, ptr %3) #10
  ret i32 %34
}