; Function Attrs: nounwind uwtable
define internal range(i32 -22, 1) i32 @config_input_ref(ptr noundef readonly captures(none) %0) #0 {
  %2 = getelementptr inbounds nuw i8, ptr %0, i64 16
  %3 = load ptr, ptr %2, align 8, !tbaa !88
  %4 = getelementptr inbounds nuw i8, ptr %3, i64 72
  %5 = load ptr, ptr %4, align 8, !tbaa !37
  %6 = getelementptr inbounds nuw i8, ptr %5, i64 8
  %7 = getelementptr inbounds nuw i8, ptr %3, i64 32
  %8 = load ptr, ptr %7, align 8, !tbaa !99
  %9 = load ptr, ptr %8, align 8, !tbaa !97
  %10 = getelementptr inbounds nuw i8, ptr %9, i64 40
  %11 = load i32, ptr %10, align 8, !tbaa !100
  %12 = getelementptr inbounds nuw i8, ptr %9, i64 44
  %13 = load i32, ptr %12, align 4, !tbaa !101
  %14 = getelementptr inbounds nuw i8, ptr %9, i64 36
  %15 = load i32, ptr %14, align 4, !tbaa !102
  %16 = tail call i32 @ff_vmafmotion_init(ptr noundef nonnull %6, i32 noundef %11, i32 noundef %13, i32 noundef %15)
  ret i32 %16
}